Certificate:
    Data:
        Version: 3 (0x2)
        Serial Number: 1 (0x1)
    Signature Algorithm: sha1WithRSAEncryption
        Issuer: C=US, ST=Unset, L=Unset, O=Unset, CN=www.example.com
        Validity
            Not Before: Apr 20 12:20:17 2014 GMT
            Not After : Apr 17 12:20:17 2024 GMT
        Subject: C=US, ST=Unset, O=Unset, CN=www.example.com
        Subject Public Key Info:
            Public Key Algorithm: rsaEncryption
                Public-Key: (2048 bit)
                Modulus:
                    00:e0:0b:c3:3b:e5:2a:74:48:9c:2d:2d:26:cd:a4:
                    f4:18:c0:64:e3:08:c1:1b:c9:62:6a:8a:a4:dd:e5:
                    e5:8e:5c:6a:4e:5e:41:b1:22:60:87:99:33:b6:d4:
                    2f:57:10:0f:14:9a:dd:8a:5e:7b:88:8e:77:ad:b2:
                    df:89:65:59:fb:50:22:b0:d9:ea:a2:82:d2:ca:1c:
                    dc:e3:43:ae:b1:96:02:cb:7e:1b:fd:cb:72:61:b7:
                    7e:8c:10:b2:52:b7:97:db:d8:e4:7c:14:c6:7a:88:
                    4b:7e:7a:71:d9:4d:3d:81:c2:a1:a1:2a:0f:a6:36:
                    3e:03:fa:8c:b4:0b:6d:e1:17:06:7f:7a:6f:ef:60:
                    72:d3:f1:58:2e:1e:ea:44:01:e1:1c:53:1e:ad:0a:
                    38:9a:24:c0:5a:be:22:9d:b3:01:47:09:7a:cc:ad:
                    2e:d7:b3:b7:35:5e:0e:06:1b:98:32:0e:bd:78:cf:
                    9f:89:5b:bb:cd:16:7a:4b:da:f1:a7:e0:56:ce:24:
                    1b:f6:f2:37:db:99:28:ef:68:81:ef:eb:0b:97:2e:
                    73:cd:3b:a5:45:4d:84:d0:bc:1e:59:64:d0:b8:8d:
                    a3:c2:e0:e9:ef:99:e7:da:1b:93:c5:95:78:01:8d:
                    43:8a:af:65:20:30:1c:4b:81:ec:ee:9c:c3:03:55:
                    5b:57
                Exponent: 65537 (0x10001)
        X509v3 extensions:
            X509v3 Basic Constraints: 
                CA:FALSE
            X509v3 Subject Key Identifier: 
                D4:D4:95:00:E9:B1:92:D3:EA:0E:0B:1D:AA:11:45:4A:42:DD:28:0A
            X509v3 Authority Key Identifier: 
                keyid:88:31:12:03:04:62:FF:94:E1:42:1E:A8:F7:AD:24:05:A8:60:13:72

    Signature Algorithm: sha1WithRSAEncryption
         52:ca:28:06:be:c3:6c:4b:c6:f7:e1:8b:00:40:12:26:00:3d:
         41:4c:91:a3:b1:84:1b:35:d3:92:a4:df:fe:4a:8c:94:e7:a5:
         88:e9:80:ac:9e:c8:95:0f:6a:35:c7:d5:f2:d9:91:1a:50:a2:
         c3:b3:2f:bb:93:fd:4b:ca:64:61:86:b6:56:b1:7a:01:c2:0a:
         ea:86:de:df:8d:94:80:43:f1:7d:12:2b:ab:6a:9f:24:29:3b:
         5b:f7:22:fc:c9:b1:0c:17:6d:60:68:b9:df:1f:58:fa:cb:3f:
         fd:b6:90:cd:df:34:4e:c7:72:9a:e7:46:d6:e1:91:14:f3:28:
         4a:09:9b:6f:cd:00:fb:7a:13:c3:89:76:1c:4c:5d:98:e5:e4:
         dc:ee:41:ec:e9:df:ce:82:16:b8:cd:2c:11:38:c5:9a:06:bb:
         e9:71:92:12:2b:3f:e8:5c:49:74:93:f9:38:73:68:ae:32:25:
         f0:8e:d4:16:38:30:4f:37:7b:c8:1a:a7:83:44:2d:84:f8:40:
         40:a4:fe:32:de:67:84:3a:7c:f8:8f:16:8a:9e:59:27:d2:49:
         5a:72:b4:94:65:0a:98:d2:8f:44:35:45:73:1d:f8:cc:d4:bb:
         d3:75:c7:f0:c7:73:4e:78:cb:88:2e:4f:c6:ac:1e:f1:6f:b4:
         ff:57:fa:61
-----BEGIN CERTIFICATE-----
MIIDZjCCAk6gAwIBAgIBATANBgkqhkiG9w0BAQUFADBXMQswCQYDVQQGEwJVUzEO
MAwGA1UECAwFVW5zZXQxDjAMBgNVBAcMBVVuc2V0MQ4wDAYDVQQKDAVVbnNldDEY
MBYGA1UEAwwPd3d3LmV4YW1wbGUuY29tMB4XDTE0MDQyMDEyMjAxN1oXDTI0MDQx
NzEyMjAxN1owRzELMAkGA1UEBhMCVVMxDjAMBgNVBAgMBVVuc2V0MQ4wDAYDVQQK
DAVVbnNldDEYMBYGA1UEAwwPd3d3LmV4YW1wbGUuY29tMIIBIjANBgkqhkiG9w0B
AQEFAAOCAQ8AMIIBCgKCAQEA4AvDO+UqdEicLS0mzaT0GMBk4wjBG8liaoqk3eXl
jlxqTl5BsSJgh5kzttQvVxAPFJrdil57iI53rbLfiWVZ+1AisNnqooLSyhzc40Ou
sZYCy34b/ctyYbd+jBCyUreX29jkfBTGeohLfnpx2U09gcKhoSoPpjY+A/qMtAtt
4RcGf3pv72By0/FYLh7qRAHhHFMerQo4miTAWr4inbMBRwl6zK0u17O3NV4OBhuY
Mg69eM+fiVu7zRZ6S9rxp+BWziQb9vI325ko72iB7+sLly5zzTulRU2E0LweWWTQ
uI2jwuDp75nn2huTxZV4AY1Diq9lIDAcS4Hs7pzDA1VbVwIDAQABo00wSzAJBgNV
HRMEAjAAMB0GA1UdDgQWBBTU1JUA6bGS0+oOCx2qEUVKQt0oCjAfBgNVHSMEGDAW
gBSIMRIDBGL/lOFCHqj3rSQFqGATcjANBgkqhkiG9w0BAQUFAAOCAQEAUsooBr7D
bEvG9+GLAEASJgA9QUyRo7GEGzXTkqTf/kqMlOeliOmArJ7IlQ9qNcfV8tmRGlCi
w7Mvu5P9S8pkYYa2VrF6AcIK6obe342UgEPxfRIrq2qfJCk7W/ci/MmxDBdtYGi5
3x9Y+ss//baQzd80TsdymudG1uGRFPMoSgmbb80A+3oTw4l2HExdmOXk3O5B7Onf
zoIWuM0sETjFmga76XGSEis/6FxJdJP5OHNorjIl8I7UFjgwTzd7yBqng0QthPhA
QKT+Mt5nhDp8+I8Wip5ZJ9JJWnK0lGUKmNKPRDVFcx34zNS703XH8MdzTnjLiC5P
xqwe8W+0/1f6YQ==
-----END CERTIFICATE-----
